; Function Attrs: inlinehint mustprogress nounwind uwtable
define internal fastcc noundef nonnull align 8 dereferenceable(8) ptr @_ZN2cv12_GLOBAL__N_18GSafePtrI9_GstQueryE6attachEPS2_(ptr noundef nonnull returned align 8 dereferenceable(8) %0, ptr noundef %1) unnamed_addr #5 align 2 personality ptr @__gxx_personality_v0 {
  %3 = load ptr, ptr %0, align 8, !tbaa !549
  %.not.i = icmp eq ptr %3, null
  br i1 %.not.i, label %_ZN2cv12_GLOBAL__N_18GSafePtrI9_GstQueryE7releaseEv.exit, label %4

4:                                                ; preds = %2
  invoke void @gst_mini_object_unref(ptr noundef nonnull %3)
          to label %_ZN2cv12_GLOBAL__N_18GSafePtrI9_GstQueryE7releaseEv.exit unwind label %5

5:                                                ; preds = %4
  %6 = landingpad { ptr, i32 }
          catch ptr null
  %7 = extractvalue { ptr, i32 } %6, 0
  tail call void @__clang_call_terminate(ptr %7) #32
  unreachable

_ZN2cv12_GLOBAL__N_18GSafePtrI9_GstQueryE7releaseEv.exit: ; preds = %4, %2
  store ptr %1, ptr %0, align 8, !tbaa !549
  ret ptr %0
}